; ModuleID = '21/1112.c'
source_filename = "21/1112.c"
target datalayout = "e-m:e-p270:32:32-p271:32:32-p272:64:64-i64:64-f80:128-n8:16:32:64-S128"
target triple = "x86_64-pc-linux-gnu"

@.str = private unnamed_addr constant [3 x i8] c"%d\00", align 1
@.str.1 = private unnamed_addr constant [6 x i8] c"%d,%d\00", align 1

; Function Attrs: noinline nounwind uwtable
define dso_local void @main() #0 {
  %1 = alloca [300 x i32], align 16
  %2 = alloca i32, align 4
  %3 = alloca i32, align 4
  %4 = alloca i32, align 4
  %5 = alloca i32, align 4
  %6 = alloca double, align 8
  %7 = alloca double, align 8
  %8 = alloca double, align 8
  store double 0.000000e+00, double* %6, align 8
  %9 = call i32 (i8*, ...) @__isoc99_scanf(i8* getelementptr inbounds ([3 x i8], [3 x i8]* @.str, i64 0, i64 0), i32* %4)
  store i32 0, i32* %2, align 4
  br label %10

10:                                               ; preds = %26, %0
  %11 = load i32, i32* %2, align 4
  %12 = load i32, i32* %4, align 4
  %13 = icmp slt i32 %11, %12
  br i1 %13, label %14, label %29

14:                                               ; preds = %10
  %15 = load i32, i32* %2, align 4
  %16 = sext i32 %15 to i64
  %17 = getelementptr inbounds [300 x i32], [300 x i32]* %1, i64 0, i64 %16
  %18 = call i32 (i8*, ...) @__isoc99_scanf(i8* getelementptr inbounds ([3 x i8], [3 x i8]* @.str, i64 0, i64 0), i32* %17)
  %19 = load double, double* %6, align 8
  %20 = load i32, i32* %2, align 4
  %21 = sext i32 %20 to i64
  %22 = getelementptr inbounds [300 x i32], [300 x i32]* %1, i64 0, i64 %21
  %23 = load i32, i32* %22, align 4
  %24 = sitofp i32 %23 to double
  %25 = fadd double %19, %24
  store double %25, double* %6, align 8
  br label %26

26:                                               ; preds = %14
  %27 = load i32, i32* %2, align 4
  %28 = add nsw i32 %27, 1
  store i32 %28, i32* %2, align 4
  br label %10

29:                                               ; preds = %10
  %30 = load double, double* %6, align 8
  %31 = fmul double %30, 1.000000e+00
  %32 = load i32, i32* %4, align 4
  %33 = sitofp i32 %32 to double
  %34 = fmul double %33, 1.000000e+00
  %35 = fdiv double %31, %34
  store double %35, double* %6, align 8
  store i32 1, i32* %2, align 4
  br label %36

36:                                               ; preds = %81, %29
  %37 = load i32, i32* %2, align 4
  %38 = load i32, i32* %4, align 4
  %39 = icmp slt i32 %37, %38
  br i1 %39, label %40, label %84

40:                                               ; preds = %36
  store i32 0, i32* %3, align 4
  br label %41

41:                                               ; preds = %77, %40
  %42 = load i32, i32* %3, align 4
  %43 = load i32, i32* %4, align 4
  %44 = load i32, i32* %2, align 4
  %45 = sub nsw i32 %43, %44
  %46 = icmp slt i32 %42, %45
  br i1 %46, label %47, label %80

47:                                               ; preds = %41
  %48 = load i32, i32* %3, align 4
  %49 = sext i32 %48 to i64
  %50 = getelementptr inbounds [300 x i32], [300 x i32]* %1, i64 0, i64 %49
  %51 = load i32, i32* %50, align 4
  %52 = load i32, i32* %3, align 4
  %53 = add nsw i32 %52, 1
  %54 = sext i32 %53 to i64
  %55 = getelementptr inbounds [300 x i32], [300 x i32]* %1, i64 0, i64 %54
  %56 = load i32, i32* %55, align 4
  %57 = icmp sgt i32 %51, %56
  br i1 %57, label %58, label %76

58:                                               ; preds = %47
  %59 = load i32, i32* %3, align 4
  %60 = sext i32 %59 to i64
  %61 = getelementptr inbounds [300 x i32], [300 x i32]* %1, i64 0, i64 %60
  %62 = load i32, i32* %61, align 4
  store i32 %62, i32* %5, align 4
  %63 = load i32, i32* %3, align 4
  %64 = add nsw i32 %63, 1
  %65 = sext i32 %64 to i64
  %66 = getelementptr inbounds [300 x i32], [300 x i32]* %1, i64 0, i64 %65
  %67 = load i32, i32* %66, align 4
  %68 = load i32, i32* %3, align 4
  %69 = sext i32 %68 to i64
  %70 = getelementptr inbounds [300 x i32], [300 x i32]* %1, i64 0, i64 %69
  store i32 %67, i32* %70, align 4
  %71 = load i32, i32* %5, align 4
  %72 = load i32, i32* %3, align 4
  %73 = add nsw i32 %72, 1
  %74 = sext i32 %73 to i64
  %75 = getelementptr inbounds [300 x i32], [300 x i32]* %1, i64 0, i64 %74
  store i32 %71, i32* %75, align 4
  br label %76

76:                                               ; preds = %58, %47
  br label %77

77:                                               ; preds = %76
  %78 = load i32, i32* %3, align 4
  %79 = add nsw i32 %78, 1
  store i32 %79, i32* %3, align 4
  br label %41

80:                                               ; preds = %41
  br label %81

81:                                               ; preds = %80
  %82 = load i32, i32* %2, align 4
  %83 = add nsw i32 %82, 1
  store i32 %83, i32* %2, align 4
  br label %36

84:                                               ; preds = %36
  %85 = load double, double* %6, align 8
  %86 = getelementptr inbounds [300 x i32], [300 x i32]* %1, i64 0, i64 0
  %87 = load i32, i32* %86, align 16
  %88 = sitofp i32 %87 to double
  %89 = fsub double %85, %88
  store double %89, double* %7, align 8
  %90 = load i32, i32* %4, align 4
  %91 = sub nsw i32 %90, 1
  %92 = sext i32 %91 to i64
  %93 = getelementptr inbounds [300 x i32], [300 x i32]* %1, i64 0, i64 %92
  %94 = load i32, i32* %93, align 4
  %95 = sitofp i32 %94 to double
  %96 = load double, double* %6, align 8
  %97 = fsub double %95, %96
  store double %97, double* %8, align 8
  %98 = load double, double* %7, align 8
  %99 = load double, double* %8, align 8
  %100 = fcmp ogt double %98, %99
  br i1 %100, label %101, label %105

101:                                              ; preds = %84
  %102 = getelementptr inbounds [300 x i32], [300 x i32]* %1, i64 0, i64 0
  %103 = load i32, i32* %102, align 16
  %104 = call i32 (i8*, ...) @printf(i8* getelementptr inbounds ([3 x i8], [3 x i8]* @.str, i64 0, i64 0), i32 %103)
  br label %105

105:                                              ; preds = %101, %84
  %106 = load double, double* %7, align 8
  %107 = load double, double* %8, align 8
  %108 = fcmp olt double %106, %107
  br i1 %108, label %109, label %116

109:                                              ; preds = %105
  %110 = load i32, i32* %4, align 4
  %111 = sub nsw i32 %110, 1
  %112 = sext i32 %111 to i64
  %113 = getelementptr inbounds [300 x i32], [300 x i32]* %1, i64 0, i64 %112
  %114 = load i32, i32* %113, align 4
  %115 = call i32 (i8*, ...) @printf(i8* getelementptr inbounds ([3 x i8], [3 x i8]* @.str, i64 0, i64 0), i32 %114)
  br label %116

116:                                              ; preds = %109, %105
  %117 = load double, double* %7, align 8
  %118 = load double, double* %8, align 8
  %119 = fcmp oeq double %117, %118
  br i1 %119, label %120, label %129

120:                                              ; preds = %116
  %121 = getelementptr inbounds [300 x i32], [300 x i32]* %1, i64 0, i64 0
  %122 = load i32, i32* %121, align 16
  %123 = load i32, i32* %4, align 4
  %124 = sub nsw i32 %123, 1
  %125 = sext i32 %124 to i64
  %126 = getelementptr inbounds [300 x i32], [300 x i32]* %1, i64 0, i64 %125
  %127 = load i32, i32* %126, align 4
  %128 = call i32 (i8*, ...) @printf(i8* getelementptr inbounds ([6 x i8], [6 x i8]* @.str.1, i64 0, i64 0), i32 %122, i32 %127)
  br label %129

129:                                              ; preds = %120, %116
  ret void
}

declare dso_local i32 @__isoc99_scanf(i8*, ...) #1

declare dso_local i32 @printf(i8*, ...) #1


!llvm.module.flags = !{!0}
!llvm.ident = !{!1}

!0 = !{i32 1, !"wchar_size", i32 4}
!1 = !{!"clang version 10.0.0-4ubuntu1 "}
