; ModuleID = 'source-C-CXX/20/1112.c'
source_filename = "source-C-CXX/20/1112.c"
target datalayout = "e-m:e-p270:32:32-p271:32:32-p272:64:64-i64:64-f80:128-n8:16:32:64-S128"
target triple = "x86_64-pc-linux-gnu"

@.str = private unnamed_addr constant [3 x i8] c"%d\00", align 1
@.str.1 = private unnamed_addr constant [6 x i8] c"%d,%d\00", align 1

; Function Attrs: nofree nounwind sspstrong uwtable
define dso_local void @main() local_unnamed_addr #0 {
  %1 = alloca [300 x i32], align 16
  %2 = alloca i32, align 4
  %3 = bitcast [300 x i32]* %1 to i8*
  call void @llvm.lifetime.start.p0i8(i64 1200, i8* nonnull %3) #3
  %4 = bitcast i32* %2 to i8*
  call void @llvm.lifetime.start.p0i8(i64 4, i8* nonnull %4) #3
  %5 = call i32 (i8*, ...) @__isoc99_scanf(i8* getelementptr inbounds ([3 x i8], [3 x i8]* @.str, i64 0, i64 0), i32* nonnull %2)
  %6 = load i32, i32* %2, align 4, !tbaa !5
  %7 = icmp sgt i32 %6, 0
  br i1 %7, label %11, label %8

8:                                                ; preds = %0
  %9 = sitofp i32 %6 to double
  %10 = fdiv double 0.000000e+00, %9
  br label %73

11:                                               ; preds = %0, %11
  %12 = phi i64 [ %19, %11 ], [ 0, %0 ]
  %13 = phi double [ %18, %11 ], [ 0.000000e+00, %0 ]
  %14 = getelementptr inbounds [300 x i32], [300 x i32]* %1, i64 0, i64 %12
  %15 = call i32 (i8*, ...) @__isoc99_scanf(i8* getelementptr inbounds ([3 x i8], [3 x i8]* @.str, i64 0, i64 0), i32* nonnull %14)
  %16 = load i32, i32* %14, align 4, !tbaa !5
  %17 = sitofp i32 %16 to double
  %18 = fadd double %13, %17
  %19 = add nuw nsw i64 %12, 1
  %20 = load i32, i32* %2, align 4, !tbaa !5
  %21 = sext i32 %20 to i64
  %22 = icmp slt i64 %19, %21
  br i1 %22, label %11, label %23, !llvm.loop !9

23:                                               ; preds = %11
  %24 = sitofp i32 %20 to double
  %25 = fdiv double %18, %24
  %26 = icmp sgt i32 %20, 1
  br i1 %26, label %27, label %73

27:                                               ; preds = %23
  %28 = getelementptr inbounds [300 x i32], [300 x i32]* %1, i64 0, i64 0
  br label %29

29:                                               ; preds = %27, %69
  %30 = phi i32 [ 0, %27 ], [ %72, %69 ]
  %31 = phi i32 [ 1, %27 ], [ %70, %69 ]
  %32 = xor i32 %30, -1
  %33 = add i32 %20, %32
  %34 = zext i32 %33 to i64
  %35 = icmp sgt i32 %20, %31
  br i1 %35, label %36, label %69

36:                                               ; preds = %29
  %37 = load i32, i32* %28, align 16, !tbaa !5
  %38 = and i64 %34, 1
  %39 = icmp eq i32 %33, 1
  br i1 %39, label %58, label %40

40:                                               ; preds = %36
  %41 = and i64 %34, 4294967294
  br label %42

42:                                               ; preds = %111, %40
  %43 = phi i32 [ %37, %40 ], [ %112, %111 ]
  %44 = phi i64 [ 0, %40 ], [ %54, %111 ]
  %45 = phi i64 [ %41, %40 ], [ %113, %111 ]
  %46 = or i64 %44, 1
  %47 = getelementptr inbounds [300 x i32], [300 x i32]* %1, i64 0, i64 %46
  %48 = load i32, i32* %47, align 4, !tbaa !5
  %49 = icmp sgt i32 %43, %48
  br i1 %49, label %50, label %52

50:                                               ; preds = %42
  %51 = getelementptr inbounds [300 x i32], [300 x i32]* %1, i64 0, i64 %44
  store i32 %48, i32* %51, align 8, !tbaa !5
  store i32 %43, i32* %47, align 4, !tbaa !5
  br label %52

52:                                               ; preds = %42, %50
  %53 = phi i32 [ %48, %42 ], [ %43, %50 ]
  %54 = add nuw nsw i64 %44, 2
  %55 = getelementptr inbounds [300 x i32], [300 x i32]* %1, i64 0, i64 %54
  %56 = load i32, i32* %55, align 8, !tbaa !5
  %57 = icmp sgt i32 %53, %56
  br i1 %57, label %109, label %111

58:                                               ; preds = %111, %36
  %59 = phi i32 [ %37, %36 ], [ %112, %111 ]
  %60 = phi i64 [ 0, %36 ], [ %54, %111 ]
  %61 = icmp eq i64 %38, 0
  br i1 %61, label %69, label %62

62:                                               ; preds = %58
  %63 = add nuw nsw i64 %60, 1
  %64 = getelementptr inbounds [300 x i32], [300 x i32]* %1, i64 0, i64 %63
  %65 = load i32, i32* %64, align 4, !tbaa !5
  %66 = icmp sgt i32 %59, %65
  br i1 %66, label %67, label %69

67:                                               ; preds = %62
  %68 = getelementptr inbounds [300 x i32], [300 x i32]* %1, i64 0, i64 %60
  store i32 %65, i32* %68, align 4, !tbaa !5
  store i32 %59, i32* %64, align 4, !tbaa !5
  br label %69

69:                                               ; preds = %58, %62, %67, %29
  %70 = add nuw nsw i32 %31, 1
  %71 = icmp eq i32 %70, %20
  %72 = add i32 %30, 1
  br i1 %71, label %73, label %29, !llvm.loop !11

73:                                               ; preds = %69, %23, %8
  %74 = phi double [ %10, %8 ], [ %25, %23 ], [ %25, %69 ]
  %75 = phi i32 [ %6, %8 ], [ %20, %23 ], [ %20, %69 ]
  %76 = add nsw i32 %75, -1
  %77 = getelementptr inbounds [300 x i32], [300 x i32]* %1, i64 0, i64 0
  %78 = load i32, i32* %77, align 16, !tbaa !5
  %79 = sitofp i32 %78 to double
  %80 = fsub double %74, %79
  %81 = sext i32 %76 to i64
  %82 = getelementptr inbounds [300 x i32], [300 x i32]* %1, i64 0, i64 %81
  %83 = load i32, i32* %82, align 4, !tbaa !5
  %84 = sitofp i32 %83 to double
  %85 = fsub double %84, %74
  %86 = fcmp ogt double %80, %85
  br i1 %86, label %87, label %89

87:                                               ; preds = %73
  %88 = call i32 (i8*, ...) @printf(i8* nonnull dereferenceable(1) getelementptr inbounds ([3 x i8], [3 x i8]* @.str, i64 0, i64 0), i32 %78)
  br label %89

89:                                               ; preds = %87, %73
  %90 = fcmp olt double %80, %85
  br i1 %90, label %91, label %98

91:                                               ; preds = %89
  %92 = load i32, i32* %2, align 4, !tbaa !5
  %93 = add nsw i32 %92, -1
  %94 = sext i32 %93 to i64
  %95 = getelementptr inbounds [300 x i32], [300 x i32]* %1, i64 0, i64 %94
  %96 = load i32, i32* %95, align 4, !tbaa !5
  %97 = call i32 (i8*, ...) @printf(i8* nonnull dereferenceable(1) getelementptr inbounds ([3 x i8], [3 x i8]* @.str, i64 0, i64 0), i32 %96)
  br label %98

98:                                               ; preds = %91, %89
  %99 = fcmp oeq double %80, %85
  br i1 %99, label %100, label %108

100:                                              ; preds = %98
  %101 = load i32, i32* %77, align 16, !tbaa !5
  %102 = load i32, i32* %2, align 4, !tbaa !5
  %103 = add nsw i32 %102, -1
  %104 = sext i32 %103 to i64
  %105 = getelementptr inbounds [300 x i32], [300 x i32]* %1, i64 0, i64 %104
  %106 = load i32, i32* %105, align 4, !tbaa !5
  %107 = call i32 (i8*, ...) @printf(i8* nonnull dereferenceable(1) getelementptr inbounds ([6 x i8], [6 x i8]* @.str.1, i64 0, i64 0), i32 %101, i32 %106)
  br label %108

108:                                              ; preds = %100, %98
  call void @llvm.lifetime.end.p0i8(i64 4, i8* nonnull %4) #3
  call void @llvm.lifetime.end.p0i8(i64 1200, i8* nonnull %3) #3
  ret void

109:                                              ; preds = %52
  %110 = getelementptr inbounds [300 x i32], [300 x i32]* %1, i64 0, i64 %46
  store i32 %56, i32* %110, align 4, !tbaa !5
  store i32 %53, i32* %55, align 8, !tbaa !5
  br label %111

111:                                              ; preds = %109, %52
  %112 = phi i32 [ %56, %52 ], [ %53, %109 ]
  %113 = add i64 %45, -2
  %114 = icmp eq i64 %113, 0
  br i1 %114, label %58, label %42, !llvm.loop !12
}

; Function Attrs: argmemonly mustprogress nofree nosync nounwind willreturn
declare void @llvm.lifetime.start.p0i8(i64 immarg, i8* nocapture) #1

; Function Attrs: nofree nounwind
declare noundef i32 @__isoc99_scanf(i8* nocapture noundef readonly, ...) local_unnamed_addr #2

; Function Attrs: nofree nounwind
declare noundef i32 @printf(i8* nocapture noundef readonly, ...) local_unnamed_addr #2

; Function Attrs: argmemonly mustprogress nofree nosync nounwind willreturn
declare void @llvm.lifetime.end.p0i8(i64 immarg, i8* nocapture) #1


!llvm.module.flags = !{!0, !1, !2, !3}
!llvm.ident = !{!4}

!0 = !{i32 1, !"wchar_size", i32 4}
!1 = !{i32 7, !"PIC Level", i32 2}
!2 = !{i32 7, !"PIE Level", i32 2}
!3 = !{i32 7, !"uwtable", i32 1}
!4 = !{!"clang version 13.0.0"}
!5 = !{!6, !6, i64 0}
!6 = !{!"int", !7, i64 0}
!7 = !{!"omnipotent char", !8, i64 0}
!8 = !{!"Simple C/C++ TBAA"}
!9 = distinct !{!9, !10}
!10 = !{!"llvm.loop.mustprogress"}
!11 = distinct !{!11, !10}
!12 = distinct !{!12, !10}
